target datalayout = "e-m:e-p270:32:32-p271:32:32-p272:64:64-i64:64-i128:128-f80:128-n8:16:32:64-S128"
target triple = "x86_64-pc-linux-gnu"

%"class.std::__cxx11::basic_string" = type { %"struct.std::__cxx11::basic_string<char>::_Alloc_hider", i64, %union.anon }
%"struct.std::__cxx11::basic_string<char>::_Alloc_hider" = type { ptr }
%union.anon = type { i64, [8 x i8] }
%"class.std::vector.3" = type { %"struct.std::_Vector_base.4" }
%"struct.std::_Vector_base.4" = type { %"struct.std::_Vector_base<int, std::allocator<int>>::_Vector_impl" }
%"struct.std::_Vector_base<int, std::allocator<int>>::_Vector_impl" = type { %"struct.std::_Vector_base<int, std::allocator<int>>::_Vector_impl_data" }
%"struct.std::_Vector_base<int, std::allocator<int>>::_Vector_impl_data" = type { ptr, ptr, ptr }
%"struct.(anonymous namespace)::CxxrtlWorker" = type { i8, %"class.std::__cxx11::basic_string", %"class.std::__cxx11::basic_string", %"class.std::__cxx11::basic_string", ptr, ptr, i8, i8, i8, i8, i8, i8, i8, i8, i8, i8, i8, i8, i8, i8, i8, %"class.std::__cxx11::basic_ostringstream", %"class.std::__cxx11::basic_string", i32, [4 x i8], %"class.Yosys::hashlib::dict", %"class.Yosys::hashlib::dict.13", %"class.Yosys::hashlib::pool", %"class.Yosys::hashlib::pool.25", %"class.Yosys::hashlib::dict.32", %"class.Yosys::hashlib::dict.39", %"class.Yosys::hashlib::dict.46", %"class.Yosys::hashlib::dict.46", %"class.Yosys::hashlib::dict.53", %"class.Yosys::hashlib::dict.53", %"class.Yosys::hashlib::dict.60", %"class.Yosys::hashlib::dict.67", %"class.Yosys::hashlib::dict.74" }
%"class.std::__cxx11::basic_ostringstream" = type { %"class.std::basic_ostream.base", %"class.std::__cxx11::basic_stringbuf", %"class.std::basic_ios" }
%"class.std::basic_ostream.base" = type { ptr }
%"class.std::__cxx11::basic_stringbuf" = type { %"class.std::basic_streambuf", i32, %"class.std::__cxx11::basic_string" }
%"class.std::basic_streambuf" = type { ptr, ptr, ptr, ptr, ptr, ptr, ptr, %"class.std::locale" }
%"class.std::locale" = type { ptr }
%"class.std::basic_ios" = type { %"class.std::ios_base", ptr, i8, i8, ptr, ptr, ptr, ptr }
%"class.std::ios_base" = type { ptr, i64, i64, i32, i32, i32, ptr, %"struct.std::ios_base::_Words", [8 x %"struct.std::ios_base::_Words"], i32, ptr, %"class.std::locale" }
%"struct.std::ios_base::_Words" = type { ptr, i64 }
%"class.Yosys::hashlib::dict" = type <{ %"class.std::vector.3", %"class.std::vector.8", [8 x i8] }>
%"class.std::vector.8" = type { %"struct.std::_Vector_base.9" }
%"struct.std::_Vector_base.9" = type { %"struct.std::_Vector_base<Yosys::hashlib::dict<const Yosys::RTLIL::Module *, Yosys::SigMap>::entry_t, std::allocator<Yosys::hashlib::dict<const Yosys::RTLIL::Module *, Yosys::SigMap>::entry_t>>::_Vector_impl" }
%"struct.std::_Vector_base<Yosys::hashlib::dict<const Yosys::RTLIL::Module *, Yosys::SigMap>::entry_t, std::allocator<Yosys::hashlib::dict<const Yosys::RTLIL::Module *, Yosys::SigMap>::entry_t>>::_Vector_impl" = type { %"struct.std::_Vector_base<Yosys::hashlib::dict<const Yosys::RTLIL::Module *, Yosys::SigMap>::entry_t, std::allocator<Yosys::hashlib::dict<const Yosys::RTLIL::Module *, Yosys::SigMap>::entry_t>>::_Vector_impl_data" }
%"struct.std::_Vector_base<Yosys::hashlib::dict<const Yosys::RTLIL::Module *, Yosys::SigMap>::entry_t, std::allocator<Yosys::hashlib::dict<const Yosys::RTLIL::Module *, Yosys::SigMap>::entry_t>>::_Vector_impl_data" = type { ptr, ptr, ptr }
%"class.Yosys::hashlib::dict.13" = type <{ %"class.std::vector.3", %"class.std::vector.14", [8 x i8] }>
%"class.std::vector.14" = type { %"struct.std::_Vector_base.15" }
%"struct.std::_Vector_base.15" = type { %"struct.std::_Vector_base<Yosys::hashlib::dict<const Yosys::RTLIL::Module *, std::vector<Yosys::Mem>>::entry_t, std::allocator<Yosys::hashlib::dict<const Yosys::RTLIL::Module *, std::vector<Yosys::Mem>>::entry_t>>::_Vector_impl" }
%"struct.std::_Vector_base<Yosys::hashlib::dict<const Yosys::RTLIL::Module *, std::vector<Yosys::Mem>>::entry_t, std::allocator<Yosys::hashlib::dict<const Yosys::RTLIL::Module *, std::vector<Yosys::Mem>>::entry_t>>::_Vector_impl" = type { %"struct.std::_Vector_base<Yosys::hashlib::dict<const Yosys::RTLIL::Module *, std::vector<Yosys::Mem>>::entry_t, std::allocator<Yosys::hashlib::dict<const Yosys::RTLIL::Module *, std::vector<Yosys::Mem>>::entry_t>>::_Vector_impl_data" }
%"struct.std::_Vector_base<Yosys::hashlib::dict<const Yosys::RTLIL::Module *, std::vector<Yosys::Mem>>::entry_t, std::allocator<Yosys::hashlib::dict<const Yosys::RTLIL::Module *, std::vector<Yosys::Mem>>::entry_t>>::_Vector_impl_data" = type { ptr, ptr, ptr }
%"class.Yosys::hashlib::pool" = type <{ %"class.std::vector.3", %"class.std::vector.20", [8 x i8] }>
%"class.std::vector.20" = type { %"struct.std::_Vector_base.21" }
%"struct.std::_Vector_base.21" = type { %"struct.std::_Vector_base<Yosys::hashlib::pool<std::pair<const Yosys::RTLIL::Module *, Yosys::RTLIL::IdString>>::entry_t, std::allocator<Yosys::hashlib::pool<std::pair<const Yosys::RTLIL::Module *, Yosys::RTLIL::IdString>>::entry_t>>::_Vector_impl" }
%"struct.std::_Vector_base<Yosys::hashlib::pool<std::pair<const Yosys::RTLIL::Module *, Yosys::RTLIL::IdString>>::entry_t, std::allocator<Yosys::hashlib::pool<std::pair<const Yosys::RTLIL::Module *, Yosys::RTLIL::IdString>>::entry_t>>::_Vector_impl" = type { %"struct.std::_Vector_base<Yosys::hashlib::pool<std::pair<const Yosys::RTLIL::Module *, Yosys::RTLIL::IdString>>::entry_t, std::allocator<Yosys::hashlib::pool<std::pair<const Yosys::RTLIL::Module *, Yosys::RTLIL::IdString>>::entry_t>>::_Vector_impl_data" }
%"struct.std::_Vector_base<Yosys::hashlib::pool<std::pair<const Yosys::RTLIL::Module *, Yosys::RTLIL::IdString>>::entry_t, std::allocator<Yosys::hashlib::pool<std::pair<const Yosys::RTLIL::Module *, Yosys::RTLIL::IdString>>::entry_t>>::_Vector_impl_data" = type { ptr, ptr, ptr }
%"class.Yosys::hashlib::pool.25" = type <{ %"class.std::vector.3", %"class.std::vector.26", [8 x i8] }>
%"class.std::vector.26" = type { %"struct.std::_Vector_base.27" }
%"struct.std::_Vector_base.27" = type { %"struct.std::_Vector_base<Yosys::hashlib::pool<const Yosys::RTLIL::Wire *>::entry_t, std::allocator<Yosys::hashlib::pool<const Yosys::RTLIL::Wire *>::entry_t>>::_Vector_impl" }
%"struct.std::_Vector_base<Yosys::hashlib::pool<const Yosys::RTLIL::Wire *>::entry_t, std::allocator<Yosys::hashlib::pool<const Yosys::RTLIL::Wire *>::entry_t>>::_Vector_impl" = type { %"struct.std::_Vector_base<Yosys::hashlib::pool<const Yosys::RTLIL::Wire *>::entry_t, std::allocator<Yosys::hashlib::pool<const Yosys::RTLIL::Wire *>::entry_t>>::_Vector_impl_data" }
%"struct.std::_Vector_base<Yosys::hashlib::pool<const Yosys::RTLIL::Wire *>::entry_t, std::allocator<Yosys::hashlib::pool<const Yosys::RTLIL::Wire *>::entry_t>>::_Vector_impl_data" = type { ptr, ptr, ptr }
%"class.Yosys::hashlib::dict.32" = type <{ %"class.std::vector.3", %"class.std::vector.33", [8 x i8] }>
%"class.std::vector.33" = type { %"struct.std::_Vector_base.34" }
%"struct.std::_Vector_base.34" = type { %"struct.std::_Vector_base<Yosys::hashlib::dict<const Yosys::RTLIL::Wire *, Yosys::RTLIL::Const>::entry_t, std::allocator<Yosys::hashlib::dict<const Yosys::RTLIL::Wire *, Yosys::RTLIL::Const>::entry_t>>::_Vector_impl" }
%"struct.std::_Vector_base<Yosys::hashlib::dict<const Yosys::RTLIL::Wire *, Yosys::RTLIL::Const>::entry_t, std::allocator<Yosys::hashlib::dict<const Yosys::RTLIL::Wire *, Yosys::RTLIL::Const>::entry_t>>::_Vector_impl" = type { %"struct.std::_Vector_base<Yosys::hashlib::dict<const Yosys::RTLIL::Wire *, Yosys::RTLIL::Const>::entry_t, std::allocator<Yosys::hashlib::dict<const Yosys::RTLIL::Wire *, Yosys::RTLIL::Const>::entry_t>>::_Vector_impl_data" }
%"struct.std::_Vector_base<Yosys::hashlib::dict<const Yosys::RTLIL::Wire *, Yosys::RTLIL::Const>::entry_t, std::allocator<Yosys::hashlib::dict<const Yosys::RTLIL::Wire *, Yosys::RTLIL::Const>::entry_t>>::_Vector_impl_data" = type { ptr, ptr, ptr }
%"class.Yosys::hashlib::dict.39" = type <{ %"class.std::vector.3", %"class.std::vector.40", [8 x i8] }>
%"class.std::vector.40" = type { %"struct.std::_Vector_base.41" }
%"struct.std::_Vector_base.41" = type { %"struct.std::_Vector_base<Yosys::hashlib::dict<Yosys::RTLIL::SigBit, Yosys::RTLIL::SyncType>::entry_t, std::allocator<Yosys::hashlib::dict<Yosys::RTLIL::SigBit, Yosys::RTLIL::SyncType>::entry_t>>::_Vector_impl" }
%"struct.std::_Vector_base<Yosys::hashlib::dict<Yosys::RTLIL::SigBit, Yosys::RTLIL::SyncType>::entry_t, std::allocator<Yosys::hashlib::dict<Yosys::RTLIL::SigBit, Yosys::RTLIL::SyncType>::entry_t>>::_Vector_impl" = type { %"struct.std::_Vector_base<Yosys::hashlib::dict<Yosys::RTLIL::SigBit, Yosys::RTLIL::SyncType>::entry_t, std::allocator<Yosys::hashlib::dict<Yosys::RTLIL::SigBit, Yosys::RTLIL::SyncType>::entry_t>>::_Vector_impl_data" }
%"struct.std::_Vector_base<Yosys::hashlib::dict<Yosys::RTLIL::SigBit, Yosys::RTLIL::SyncType>::entry_t, std::allocator<Yosys::hashlib::dict<Yosys::RTLIL::SigBit, Yosys::RTLIL::SyncType>::entry_t>>::_Vector_impl_data" = type { ptr, ptr, ptr }
%"class.Yosys::hashlib::dict.46" = type <{ %"class.std::vector.3", %"class.std::vector.47", [8 x i8] }>
%"class.std::vector.47" = type { %"struct.std::_Vector_base.48" }
%"struct.std::_Vector_base.48" = type { %"struct.std::_Vector_base<Yosys::hashlib::dict<const Yosys::RTLIL::Module *, std::vector<(anonymous namespace)::FlowGraph::Node>>::entry_t, std::allocator<Yosys::hashlib::dict<const Yosys::RTLIL::Module *, std::vector<(anonymous namespace)::FlowGraph::Node>>::entry_t>>::_Vector_impl" }
%"struct.std::_Vector_base<Yosys::hashlib::dict<const Yosys::RTLIL::Module *, std::vector<(anonymous namespace)::FlowGraph::Node>>::entry_t, std::allocator<Yosys::hashlib::dict<const Yosys::RTLIL::Module *, std::vector<(anonymous namespace)::FlowGraph::Node>>::entry_t>>::_Vector_impl" = type { %"struct.std::_Vector_base<Yosys::hashlib::dict<const Yosys::RTLIL::Module *, std::vector<(anonymous namespace)::FlowGraph::Node>>::entry_t, std::allocator<Yosys::hashlib::dict<const Yosys::RTLIL::Module *, std::vector<(anonymous namespace)::FlowGraph::Node>>::entry_t>>::_Vector_impl_data" }
%"struct.std::_Vector_base<Yosys::hashlib::dict<const Yosys::RTLIL::Module *, std::vector<(anonymous namespace)::FlowGraph::Node>>::entry_t, std::allocator<Yosys::hashlib::dict<const Yosys::RTLIL::Module *, std::vector<(anonymous namespace)::FlowGraph::Node>>::entry_t>>::_Vector_impl_data" = type { ptr, ptr, ptr }
%"class.Yosys::hashlib::dict.53" = type <{ %"class.std::vector.3", %"class.std::vector.54", [8 x i8] }>
%"class.std::vector.54" = type { %"struct.std::_Vector_base.55" }
%"struct.std::_Vector_base.55" = type { %"struct.std::_Vector_base<Yosys::hashlib::dict<const Yosys::RTLIL::Wire *, (anonymous namespace)::WireType>::entry_t, std::allocator<Yosys::hashlib::dict<const Yosys::RTLIL::Wire *, (anonymous namespace)::WireType>::entry_t>>::_Vector_impl" }
%"struct.std::_Vector_base<Yosys::hashlib::dict<const Yosys::RTLIL::Wire *, (anonymous namespace)::WireType>::entry_t, std::allocator<Yosys::hashlib::dict<const Yosys::RTLIL::Wire *, (anonymous namespace)::WireType>::entry_t>>::_Vector_impl" = type { %"struct.std::_Vector_base<Yosys::hashlib::dict<const Yosys::RTLIL::Wire *, (anonymous namespace)::WireType>::entry_t, std::allocator<Yosys::hashlib::dict<const Yosys::RTLIL::Wire *, (anonymous namespace)::WireType>::entry_t>>::_Vector_impl_data" }
%"struct.std::_Vector_base<Yosys::hashlib::dict<const Yosys::RTLIL::Wire *, (anonymous namespace)::WireType>::entry_t, std::allocator<Yosys::hashlib::dict<const Yosys::RTLIL::Wire *, (anonymous namespace)::WireType>::entry_t>>::_Vector_impl_data" = type { ptr, ptr, ptr }
%"class.Yosys::hashlib::dict.60" = type <{ %"class.std::vector.3", %"class.std::vector.61", [8 x i8] }>
%"class.std::vector.61" = type { %"struct.std::_Vector_base.62" }
%"struct.std::_Vector_base.62" = type { %"struct.std::_Vector_base<Yosys::hashlib::dict<Yosys::RTLIL::SigBit, bool>::entry_t, std::allocator<Yosys::hashlib::dict<Yosys::RTLIL::SigBit, bool>::entry_t>>::_Vector_impl" }
%"struct.std::_Vector_base<Yosys::hashlib::dict<Yosys::RTLIL::SigBit, bool>::entry_t, std::allocator<Yosys::hashlib::dict<Yosys::RTLIL::SigBit, bool>::entry_t>>::_Vector_impl" = type { %"struct.std::_Vector_base<Yosys::hashlib::dict<Yosys::RTLIL::SigBit, bool>::entry_t, std::allocator<Yosys::hashlib::dict<Yosys::RTLIL::SigBit, bool>::entry_t>>::_Vector_impl_data" }
%"struct.std::_Vector_base<Yosys::hashlib::dict<Yosys::RTLIL::SigBit, bool>::entry_t, std::allocator<Yosys::hashlib::dict<Yosys::RTLIL::SigBit, bool>::entry_t>>::_Vector_impl_data" = type { ptr, ptr, ptr }
%"class.Yosys::hashlib::dict.67" = type <{ %"class.std::vector.3", %"class.std::vector.68", [8 x i8] }>
%"class.std::vector.68" = type { %"struct.std::_Vector_base.69" }
%"struct.std::_Vector_base.69" = type { %"struct.std::_Vector_base<Yosys::hashlib::dict<const Yosys::RTLIL::Module *, Yosys::hashlib::pool<std::__cxx11::basic_string<char>>>::entry_t, std::allocator<Yosys::hashlib::dict<const Yosys::RTLIL::Module *, Yosys::hashlib::pool<std::__cxx11::basic_string<char>>>::entry_t>>::_Vector_impl" }
%"struct.std::_Vector_base<Yosys::hashlib::dict<const Yosys::RTLIL::Module *, Yosys::hashlib::pool<std::__cxx11::basic_string<char>>>::entry_t, std::allocator<Yosys::hashlib::dict<const Yosys::RTLIL::Module *, Yosys::hashlib::pool<std::__cxx11::basic_string<char>>>::entry_t>>::_Vector_impl" = type { %"struct.std::_Vector_base<Yosys::hashlib::dict<const Yosys::RTLIL::Module *, Yosys::hashlib::pool<std::__cxx11::basic_string<char>>>::entry_t, std::allocator<Yosys::hashlib::dict<const Yosys::RTLIL::Module *, Yosys::hashlib::pool<std::__cxx11::basic_string<char>>>::entry_t>>::_Vector_impl_data" }
%"struct.std::_Vector_base<Yosys::hashlib::dict<const Yosys::RTLIL::Module *, Yosys::hashlib::pool<std::__cxx11::basic_string<char>>>::entry_t, std::allocator<Yosys::hashlib::dict<const Yosys::RTLIL::Module *, Yosys::hashlib::pool<std::__cxx11::basic_string<char>>>::entry_t>>::_Vector_impl_data" = type { ptr, ptr, ptr }
%"class.Yosys::hashlib::dict.74" = type <{ %"class.std::vector.3", %"class.std::vector.75", [8 x i8] }>
%"class.std::vector.75" = type { %"struct.std::_Vector_base.76" }
%"struct.std::_Vector_base.76" = type { %"struct.std::_Vector_base<Yosys::hashlib::dict<const Yosys::RTLIL::Module *, bool>::entry_t, std::allocator<Yosys::hashlib::dict<const Yosys::RTLIL::Module *, bool>::entry_t>>::_Vector_impl" }
%"struct.std::_Vector_base<Yosys::hashlib::dict<const Yosys::RTLIL::Module *, bool>::entry_t, std::allocator<Yosys::hashlib::dict<const Yosys::RTLIL::Module *, bool>::entry_t>>::_Vector_impl" = type { %"struct.std::_Vector_base<Yosys::hashlib::dict<const Yosys::RTLIL::Module *, bool>::entry_t, std::allocator<Yosys::hashlib::dict<const Yosys::RTLIL::Module *, bool>::entry_t>>::_Vector_impl_data" }
%"struct.std::_Vector_base<Yosys::hashlib::dict<const Yosys::RTLIL::Module *, bool>::entry_t, std::allocator<Yosys::hashlib::dict<const Yosys::RTLIL::Module *, bool>::entry_t>>::_Vector_impl_data" = type { ptr, ptr, ptr }

@.str.209 = private unnamed_addr constant [21 x i8] c"basic_string::append\00", align 1
@.str.619 = private unnamed_addr constant [2 x i8] c"\09\00", align 1

; Function Attrs: mustprogress nounwind uwtable
define linkonce_odr noundef i64 @_ZNKSt15__new_allocatorIcE11_M_max_sizeEv(ptr noundef nonnull align 1 dereferenceable(1) %0) #6 comdat align 2 {
  %2 = alloca ptr, align 8
  store ptr %0, ptr %2, align 8, !tbaa !19
  ret i64 9223372036854775807
}

; Function Attrs: mustprogress nounwind uwtable
define linkonce_odr noundef i64 @_ZNKSt15__new_allocatorIcE8max_sizeEv(ptr noundef nonnull align 1 dereferenceable(1) %0) #6 comdat align 2 {
  %2 = alloca ptr, align 8
  store ptr %0, ptr %2, align 8, !tbaa !19
  %3 = load ptr, ptr %2, align 8
  %4 = call noundef i64 @_ZNKSt15__new_allocatorIcE11_M_max_sizeEv(ptr noundef nonnull align 1 dereferenceable(1) %3) #3
  ret i64 %4
}

; Function Attrs: mustprogress nounwind uwtable
define linkonce_odr noundef i64 @_ZNSt16allocator_traitsISaIcEE8max_sizeERKS0_(ptr noundef nonnull align 1 dereferenceable(1) %0) #6 comdat align 2 {
  %2 = alloca ptr, align 8
  store ptr %0, ptr %2, align 8, !tbaa !13
  %3 = load ptr, ptr %2, align 8, !tbaa !13
  %4 = call noundef i64 @_ZNKSt15__new_allocatorIcE8max_sizeEv(ptr noundef nonnull align 1 dereferenceable(1) %3) #3
  ret i64 %4
}

; Function Attrs: mustprogress nounwind uwtable
define available_externally noundef nonnull align 1 dereferenceable(1) ptr @_ZNKSt7__cxx1112basic_stringIcSt11char_traitsIcESaIcEE16_M_get_allocatorEv(ptr noundef nonnull align 8 dereferenceable(32) %0) #6 align 2 {
  %2 = alloca ptr, align 8
  store ptr %0, ptr %2, align 8, !tbaa !15
  %3 = load ptr, ptr %2, align 8
  %4 = getelementptr inbounds nuw %"class.std::__cxx11::basic_string", ptr %3, i32 0, i32 0
  ret ptr %4
}

; Function Attrs: mustprogress nounwind uwtable
define available_externally noundef i64 @_ZNKSt7__cxx1112basic_stringIcSt11char_traitsIcESaIcEE4sizeEv(ptr noundef nonnull align 8 dereferenceable(32) %0) #6 align 2 {
  %2 = alloca ptr, align 8
  store ptr %0, ptr %2, align 8, !tbaa !15
  %3 = load ptr, ptr %2, align 8
  %4 = getelementptr inbounds nuw %"class.std::__cxx11::basic_string", ptr %3, i32 0, i32 1
  %5 = load i64, ptr %4, align 8, !tbaa !156
  ret i64 %5
}

; Function Attrs: mustprogress nounwind uwtable
define available_externally noundef i64 @_ZNKSt7__cxx1112basic_stringIcSt11char_traitsIcESaIcEE8max_sizeEv(ptr noundef nonnull align 8 dereferenceable(32) %0) #6 align 2 {
  %2 = alloca ptr, align 8
  store ptr %0, ptr %2, align 8, !tbaa !15
  %3 = load ptr, ptr %2, align 8
  %4 = call noundef nonnull align 1 dereferenceable(1) ptr @_ZNKSt7__cxx1112basic_stringIcSt11char_traitsIcESaIcEE16_M_get_allocatorEv(ptr noundef nonnull align 8 dereferenceable(32) %3)
  %5 = call noundef i64 @_ZNSt16allocator_traitsISaIcEE8max_sizeERKS0_(ptr noundef nonnull align 1 dereferenceable(1) %4) #3
  %6 = sub i64 %5, 1
  %7 = udiv i64 %6, 2
  ret i64 %7
}

; Function Attrs: mustprogress uwtable
define available_externally void @_ZNKSt7__cxx1112basic_stringIcSt11char_traitsIcESaIcEE15_M_check_lengthEmmPKc(ptr noundef nonnull align 8 dereferenceable(32) %0, i64 noundef %1, i64 noundef %2, ptr noundef %3) #4 align 2 {
  %5 = alloca ptr, align 8
  %6 = alloca i64, align 8
  %7 = alloca i64, align 8
  %8 = alloca ptr, align 8
  store ptr %0, ptr %5, align 8, !tbaa !15
  store i64 %1, ptr %6, align 8, !tbaa !34
  store i64 %2, ptr %7, align 8, !tbaa !34
  store ptr %3, ptr %8, align 8, !tbaa !17
  %9 = load ptr, ptr %5, align 8
  %10 = call noundef i64 @_ZNKSt7__cxx1112basic_stringIcSt11char_traitsIcESaIcEE8max_sizeEv(ptr noundef nonnull align 8 dereferenceable(32) %9) #3
  %11 = call noundef i64 @_ZNKSt7__cxx1112basic_stringIcSt11char_traitsIcESaIcEE4sizeEv(ptr noundef nonnull align 8 dereferenceable(32) %9) #3
  %12 = load i64, ptr %6, align 8, !tbaa !34
  %13 = sub i64 %11, %12
  %14 = sub i64 %10, %13
  %15 = load i64, ptr %7, align 8, !tbaa !34
  %16 = icmp ult i64 %14, %15
  br i1 %16, label %17, label %19

17:                                               ; preds = %4
  %18 = load ptr, ptr %8, align 8, !tbaa !17
  call void @_ZSt20__throw_length_errorPKc(ptr noundef %18) #22
  unreachable

19:                                               ; preds = %4
  ret void
}

; Function Attrs: mustprogress nounwind uwtable
define linkonce_odr noundef i64 @_ZNSt11char_traitsIcE6lengthEPKc(ptr noundef %0) #6 comdat align 2 {
  %2 = alloca ptr, align 8
  store ptr %0, ptr %2, align 8, !tbaa !17
  %3 = load ptr, ptr %2, align 8, !tbaa !17
  %4 = call i64 @strlen(ptr noundef %3) #3
  ret i64 %4
}

; Function Attrs: mustprogress uwtable
define available_externally noundef nonnull align 8 dereferenceable(32) ptr @_ZNSt7__cxx1112basic_stringIcSt11char_traitsIcESaIcEE6appendEPKc(ptr noundef nonnull align 8 dereferenceable(32) %0, ptr noundef %1) #4 align 2 {
  %3 = alloca ptr, align 8
  %4 = alloca ptr, align 8
  %5 = alloca i64, align 8
  store ptr %0, ptr %3, align 8, !tbaa !15
  store ptr %1, ptr %4, align 8, !tbaa !17
  %6 = load ptr, ptr %3, align 8
  call void @llvm.lifetime.start.p0(i64 8, ptr %5) #3
  %7 = load ptr, ptr %4, align 8, !tbaa !17
  %8 = call noundef i64 @_ZNSt11char_traitsIcE6lengthEPKc(ptr noundef %7)
  store i64 %8, ptr %5, align 8, !tbaa !34
  %9 = load i64, ptr %5, align 8, !tbaa !34
  call void @_ZNKSt7__cxx1112basic_stringIcSt11char_traitsIcESaIcEE15_M_check_lengthEmmPKc(ptr noundef nonnull align 8 dereferenceable(32) %6, i64 noundef 0, i64 noundef %9, ptr noundef @.str.209)
  %10 = load ptr, ptr %4, align 8, !tbaa !17
  %11 = load i64, ptr %5, align 8, !tbaa !34
  %12 = call noundef nonnull align 8 dereferenceable(32) ptr @_ZNSt7__cxx1112basic_stringIcSt11char_traitsIcESaIcEE9_M_appendEPKcm(ptr noundef nonnull align 8 dereferenceable(32) %6, ptr noundef %10, i64 noundef %11)
  call void @llvm.lifetime.end.p0(i64 8, ptr %5) #3
  ret ptr %12
}

; Function Attrs: mustprogress uwtable
define available_externally noundef nonnull align 8 dereferenceable(32) ptr @_ZNSt7__cxx1112basic_stringIcSt11char_traitsIcESaIcEEpLEPKc(ptr noundef nonnull align 8 dereferenceable(32) %0, ptr noundef %1) #4 align 2 {
  %3 = alloca ptr, align 8
  %4 = alloca ptr, align 8
  store ptr %0, ptr %3, align 8, !tbaa !15
  store ptr %1, ptr %4, align 8, !tbaa !17
  %5 = load ptr, ptr %3, align 8
  %6 = load ptr, ptr %4, align 8, !tbaa !17
  %7 = call noundef nonnull align 8 dereferenceable(32) ptr @_ZNSt7__cxx1112basic_stringIcSt11char_traitsIcESaIcEE6appendEPKc(ptr noundef nonnull align 8 dereferenceable(32) %5, ptr noundef %6)
  ret ptr %7
}

; Function Attrs: mustprogress uwtable
define internal void @_ZN12_GLOBAL__N_112CxxrtlWorker10inc_indentEv(ptr noundef nonnull align 8 dereferenceable(1280) %0) #4 align 2 {
  %2 = alloca ptr, align 8
  store ptr %0, ptr %2, align 8, !tbaa !157
  %3 = load ptr, ptr %2, align 8
  %4 = getelementptr inbounds nuw %"struct.(anonymous namespace)::CxxrtlWorker", ptr %3, i32 0, i32 22
  %5 = call noundef nonnull align 8 dereferenceable(32) ptr @_ZNSt7__cxx1112basic_stringIcSt11char_traitsIcESaIcEEpLEPKc(ptr noundef nonnull align 8 dereferenceable(32) %4, ptr noundef @.str.619)
  ret void
}