; Function Attrs: mustprogress uwtable
define internal fastcc void @_ZN12_GLOBAL__N_112CxxrtlWorker10inc_indentEv(ptr noundef nonnull align 8 dereferenceable(1280) %0) unnamed_addr #5 align 2 {
  %2 = getelementptr inbounds nuw i8, ptr %0, i64 520
  %3 = load i64, ptr %2, align 8, !tbaa !101
  %4 = icmp eq i64 %3, 4611686018427387903
  br i1 %4, label %5, label %_ZNSt7__cxx1112basic_stringIcSt11char_traitsIcESaIcEEpLEPKc.exit

5:                                                ; preds = %1
  tail call void @_ZSt20__throw_length_errorPKc(ptr noundef nonnull @.str.209) #37
  unreachable

_ZNSt7__cxx1112basic_stringIcSt11char_traitsIcESaIcEEpLEPKc.exit: ; preds = %1
  %6 = getelementptr inbounds nuw i8, ptr %0, i64 512
  %7 = tail call noundef nonnull align 8 dereferenceable(32) ptr @_ZNSt7__cxx1112basic_stringIcSt11char_traitsIcESaIcEE9_M_appendEPKcm(ptr noundef nonnull align 8 dereferenceable(32) %6, ptr noundef nonnull @.str.619, i64 noundef 1)
  ret void
}